target datalayout = "e-m:e-p270:32:32-p271:32:32-p272:64:64-i64:64-i128:128-f80:128-n8:16:32:64-S128"
target triple = "x86_64-pc-linux-gnu"

%"class.Ipopt::TNLPAdapter" = type { %"class.Ipopt::NLP.base", %"class.Ipopt::SmartPtr", %"class.Ipopt::SmartPtr.0", %"class.Ipopt::SmartPtr.1", double, double, i32, double, i32, double, double, i8, i32, i8, i32, i32, i32, i32, double, double, i8, double, i32, i32, i32, i32, i32, i32, i32, i32, i32, i32, %"class.Ipopt::SmartPtr.2", %"class.Ipopt::SmartPtr.2", %"class.Ipopt::SmartPtr.2", %"class.Ipopt::SmartPtr.2", %"class.Ipopt::SmartPtr.3", %"class.Ipopt::SmartPtr.2", %"class.Ipopt::SmartPtr.3", %"class.Ipopt::SmartPtr.2", %"class.Ipopt::SmartPtr.3", %"class.Ipopt::SmartPtr.2", %"class.Ipopt::SmartPtr.3", %"class.Ipopt::SmartPtr.3", %"class.Ipopt::SmartPtr.3", %"class.Ipopt::SmartPtr.4", ptr, ptr, ptr, ptr, ptr, i32, i32, i32, i32, i32, %"class.Ipopt::SmartPtr.5", %"class.Ipopt::SmartPtr.6", %"class.Ipopt::SmartPtr.5", %"class.Ipopt::SmartPtr.6", %"class.Ipopt::SmartPtr.5", %"class.Ipopt::SmartPtr.6", %"class.Ipopt::SmartPtr.6", %"class.Ipopt::SmartPtr.5", %"class.Ipopt::SmartPtr.6", %"class.Ipopt::SmartPtr.5", ptr, ptr, ptr, %"class.std::vector", %"class.std::vector", %"class.std::vector", i32, ptr, ptr, ptr, ptr, ptr }
%"class.Ipopt::NLP.base" = type { %"class.Ipopt::ReferencedObject.base" }
%"class.Ipopt::ReferencedObject.base" = type <{ ptr, i32 }>
%"class.Ipopt::SmartPtr" = type { ptr }
%"class.Ipopt::SmartPtr.0" = type { ptr }
%"class.Ipopt::SmartPtr.1" = type { ptr }
%"class.Ipopt::SmartPtr.2" = type { ptr }
%"class.Ipopt::SmartPtr.3" = type { ptr }
%"class.Ipopt::SmartPtr.4" = type { ptr }
%"class.Ipopt::SmartPtr.6" = type { ptr }
%"class.Ipopt::SmartPtr.5" = type { ptr }
%"class.std::vector" = type { %"struct.std::_Vector_base" }
%"struct.std::_Vector_base" = type { %"struct.std::_Vector_base<int, std::allocator<int>>::_Vector_impl" }
%"struct.std::_Vector_base<int, std::allocator<int>>::_Vector_impl" = type { %"struct.std::_Vector_base<int, std::allocator<int>>::_Vector_impl_data" }
%"struct.std::_Vector_base<int, std::allocator<int>>::_Vector_impl_data" = type { ptr, ptr, ptr }
%"class.Ipopt::Matrix.base" = type <{ %"class.Ipopt::TaggedObject", %"class.Ipopt::SmartPtr.3", i32, i8 }>
%"class.Ipopt::TaggedObject" = type { %"class.Ipopt::ReferencedObject.base", %"class.Ipopt::Subject", i32, i32 }
%"class.Ipopt::Subject" = type { ptr, %"class.std::vector.58" }
%"class.std::vector.58" = type { %"struct.std::_Vector_base.59" }
%"struct.std::_Vector_base.59" = type { %"struct.std::_Vector_base<Ipopt::Observer *, std::allocator<Ipopt::Observer *>>::_Vector_impl" }
%"struct.std::_Vector_base<Ipopt::Observer *, std::allocator<Ipopt::Observer *>>::_Vector_impl" = type { %"struct.std::_Vector_base<Ipopt::Observer *, std::allocator<Ipopt::Observer *>>::_Vector_impl_data" }
%"struct.std::_Vector_base<Ipopt::Observer *, std::allocator<Ipopt::Observer *>>::_Vector_impl_data" = type { ptr, ptr, ptr }
%"class.Ipopt::GenTMatrix" = type <{ %"class.Ipopt::Matrix.base", [3 x i8], ptr, ptr, i8, [7 x i8] }>

; Function Attrs: mustprogress nounwind uwtable
define linkonce_odr noundef i32 @_ZNK5Ipopt12TaggedObject6GetTagEv(ptr noundef nonnull align 8 dereferenceable(56) %0) #5 comdat align 2 {
  %2 = alloca ptr, align 8
  store ptr %0, ptr %2, align 8, !tbaa !429
  %3 = load ptr, ptr %2, align 8
  %4 = getelementptr inbounds nuw %"class.Ipopt::TaggedObject", ptr %3, i32 0, i32 2
  %5 = load i32, ptr %4, align 8, !tbaa !431
  ret i32 %5
}

; Function Attrs: mustprogress uwtable
define linkonce_odr noundef ptr @_ZN5Ipopt10GenTMatrix6ValuesEv(ptr noundef nonnull align 8 dereferenceable(89) %0) #4 comdat align 2 {
  %2 = alloca ptr, align 8
  store ptr %0, ptr %2, align 8, !tbaa !355
  %3 = load ptr, ptr %2, align 8
  call void @_ZN5Ipopt12TaggedObject13ObjectChangedEv(ptr noundef nonnull align 8 dereferenceable(56) %3)
  %4 = getelementptr inbounds nuw %"class.Ipopt::GenTMatrix", ptr %3, i32 0, i32 4
  store i8 1, ptr %4, align 8, !tbaa !360
  %5 = getelementptr inbounds nuw %"class.Ipopt::GenTMatrix", ptr %3, i32 0, i32 3
  %6 = load ptr, ptr %5, align 8, !tbaa !363
  ret ptr %6
}

; Function Attrs: mustprogress uwtable
define noundef zeroext i1 @_ZN5Ipopt11TNLPAdapter14update_local_xERKNS_6VectorE(ptr noundef nonnull align 8 dereferenceable(600) %0, ptr noundef nonnull align 8 dereferenceable(205) %1) #4 align 2 {
  %3 = alloca i1, align 1
  %4 = alloca ptr, align 8
  %5 = alloca ptr, align 8
  store ptr %0, ptr %4, align 8, !tbaa !3
  store ptr %1, ptr %5, align 8, !tbaa !314
  %6 = load ptr, ptr %4, align 8
  %7 = load ptr, ptr %5, align 8, !tbaa !314
  %8 = call noundef i32 @_ZNK5Ipopt12TaggedObject6GetTagEv(ptr noundef nonnull align 8 dereferenceable(56) %7)
  %9 = getelementptr inbounds nuw %"class.Ipopt::TNLPAdapter", ptr %6, i32 0, i32 51
  %10 = load i32, ptr %9, align 8, !tbaa !53
  %11 = icmp eq i32 %8, %10
  br i1 %11, label %12, label %13

12:                                               ; preds = %2
  store i1 false, ptr %3, align 1
  br label %20

13:                                               ; preds = %2
  %14 = load ptr, ptr %5, align 8, !tbaa !314
  %15 = getelementptr inbounds nuw %"class.Ipopt::TNLPAdapter", ptr %6, i32 0, i32 46
  %16 = load ptr, ptr %15, align 8, !tbaa !14
  call void @_ZN5Ipopt11TNLPAdapter7ResortXERKNS_6VectorEPdb(ptr noundef nonnull align 8 dereferenceable(600) %6, ptr noundef nonnull align 8 dereferenceable(205) %14, ptr noundef %16, i1 noundef zeroext true)
  %17 = load ptr, ptr %5, align 8, !tbaa !314
  %18 = call noundef i32 @_ZNK5Ipopt12TaggedObject6GetTagEv(ptr noundef nonnull align 8 dereferenceable(56) %17)
  %19 = getelementptr inbounds nuw %"class.Ipopt::TNLPAdapter", ptr %6, i32 0, i32 51
  store i32 %18, ptr %19, align 8, !tbaa !53
  store i1 true, ptr %3, align 1
  br label %20

20:                                               ; preds = %13, %12
  %21 = load i1, ptr %3, align 1
  ret i1 %21
}

; Function Attrs: mustprogress uwtable
define noundef zeroext i1 @_ZN5Ipopt11TNLPAdapter10Eval_jac_dERKNS_6VectorERNS_6MatrixE(ptr noundef nonnull align 8 dereferenceable(600) %0, ptr noundef nonnull align 8 dereferenceable(205) %1, ptr noundef nonnull align 8 dereferenceable(69) %2) unnamed_addr #4 align 2 {
  %4 = alloca i1, align 1
  %5 = alloca ptr, align 8
  %6 = alloca ptr, align 8
  %7 = alloca ptr, align 8
  %8 = alloca i8, align 1
  %9 = alloca ptr, align 8
  %10 = alloca ptr, align 8
  %11 = alloca i32, align 4
  %12 = alloca i32, align 4
  store ptr %0, ptr %5, align 8, !tbaa !3
  store ptr %1, ptr %6, align 8, !tbaa !314
  store ptr %2, ptr %7, align 8, !tbaa !312
  %13 = load ptr, ptr %5, align 8
  call void @llvm.lifetime.start.p0(i64 1, ptr %8) #3
  store i8 0, ptr %8, align 1, !tbaa !133
  %14 = load ptr, ptr %6, align 8, !tbaa !314
  %15 = call noundef zeroext i1 @_ZN5Ipopt11TNLPAdapter14update_local_xERKNS_6VectorE(ptr noundef nonnull align 8 dereferenceable(600) %13, ptr noundef nonnull align 8 dereferenceable(205) %14)
  br i1 %15, label %16, label %17

16:                                               ; preds = %3
  store i8 1, ptr %8, align 1, !tbaa !133
  br label %17

17:                                               ; preds = %16, %3
  %18 = load i8, ptr %8, align 1, !tbaa !133, !range !134, !noundef !135
  %19 = trunc i8 %18 to i1
  %20 = call noundef zeroext i1 @_ZN5Ipopt11TNLPAdapter19internal_eval_jac_gEb(ptr noundef nonnull align 8 dereferenceable(600) %13, i1 noundef zeroext %19)
  br i1 %20, label %21, label %54

21:                                               ; preds = %17
  call void @llvm.lifetime.start.p0(i64 8, ptr %9) #3
  %22 = load ptr, ptr %7, align 8, !tbaa !312
  store ptr %22, ptr %9, align 8, !tbaa !355
  call void @llvm.lifetime.start.p0(i64 8, ptr %10) #3
  %23 = load ptr, ptr %9, align 8, !tbaa !355
  %24 = call noundef ptr @_ZN5Ipopt10GenTMatrix6ValuesEv(ptr noundef nonnull align 8 dereferenceable(89) %23)
  store ptr %24, ptr %10, align 8, !tbaa !142
  call void @llvm.lifetime.start.p0(i64 4, ptr %11) #3
  store i32 0, ptr %11, align 4, !tbaa !98
  br label %25

25:                                               ; preds = %50, %21
  %26 = load i32, ptr %11, align 4, !tbaa !98
  %27 = getelementptr inbounds nuw %"class.Ipopt::TNLPAdapter", ptr %13, i32 0, i32 26
  %28 = load i32, ptr %27, align 8, !tbaa !193
  %29 = icmp slt i32 %26, %28
  br i1 %29, label %31, label %30

30:                                               ; preds = %25
  call void @llvm.lifetime.end.p0(i64 4, ptr %11) #3
  br label %53

31:                                               ; preds = %25
  %32 = getelementptr inbounds nuw %"class.Ipopt::TNLPAdapter", ptr %13, i32 0, i32 49
  %33 = load ptr, ptr %32, align 8, !tbaa !51
  %34 = getelementptr inbounds nuw %"class.Ipopt::TNLPAdapter", ptr %13, i32 0, i32 66
  %35 = load ptr, ptr %34, align 8, !tbaa !58
  %36 = getelementptr inbounds nuw %"class.Ipopt::TNLPAdapter", ptr %13, i32 0, i32 25
  %37 = load i32, ptr %36, align 4, !tbaa !188
  %38 = load i32, ptr %11, align 4, !tbaa !98
  %39 = add nsw i32 %37, %38
  %40 = sext i32 %39 to i64
  %41 = getelementptr inbounds i32, ptr %35, i64 %40
  %42 = load i32, ptr %41, align 4, !tbaa !98
  %43 = sext i32 %42 to i64
  %44 = getelementptr inbounds double, ptr %33, i64 %43
  %45 = load double, ptr %44, align 8, !tbaa !145
  %46 = load ptr, ptr %10, align 8, !tbaa !142
  %47 = load i32, ptr %11, align 4, !tbaa !98
  %48 = sext i32 %47 to i64
  %49 = getelementptr inbounds double, ptr %46, i64 %48
  store double %45, ptr %49, align 8, !tbaa !145
  br label %50

50:                                               ; preds = %31
  %51 = load i32, ptr %11, align 4, !tbaa !98
  %52 = add nsw i32 %51, 1
  store i32 %52, ptr %11, align 4, !tbaa !98
  br label %25, !llvm.loop !365

53:                                               ; preds = %30
  store i1 true, ptr %4, align 1
  store i32 1, ptr %12, align 4
  call void @llvm.lifetime.end.p0(i64 8, ptr %10) #3
  call void @llvm.lifetime.end.p0(i64 8, ptr %9) #3
  br label %55

54:                                               ; preds = %17
  store i1 false, ptr %4, align 1
  store i32 1, ptr %12, align 4
  br label %55

55:                                               ; preds = %54, %53
  call void @llvm.lifetime.end.p0(i64 1, ptr %8) #3
  %56 = load i1, ptr %4, align 1
  ret i1 %56
}