; Function Attrs: mustprogress uwtable
define noundef zeroext i1 @_ZN5Ipopt11TNLPAdapter10Eval_jac_dERKNS_6VectorERNS_6MatrixE(ptr noundef nonnull align 8 captures(none) dereferenceable(600) %0, ptr noundef nonnull readonly align 8 captures(none) dereferenceable(205) %1, ptr noundef nonnull align 8 dereferenceable(69) %2) unnamed_addr #3 align 2 {
  %4 = getelementptr inbounds nuw i8, ptr %1, i64 48
  %5 = load i32, ptr %4, align 8, !tbaa !275
  %6 = getelementptr inbounds nuw i8, ptr %0, i64 352
  %7 = load i32, ptr %6, align 8, !tbaa !276
  %8 = icmp ne i32 %5, %7
  br i1 %8, label %9, label %_ZN5Ipopt11TNLPAdapter14update_local_xERKNS_6VectorE.exit

9:                                                ; preds = %3
  %10 = getelementptr inbounds nuw i8, ptr %0, i64 312
  %11 = load ptr, ptr %10, align 8, !tbaa !48
  tail call void @_ZN5Ipopt11TNLPAdapter7ResortXERKNS_6VectorEPdb(ptr noundef nonnull align 8 dereferenceable(600) %0, ptr noundef nonnull readonly align 8 dereferenceable(205) %1, ptr noundef %11, i1 noundef zeroext true)
  %12 = load i32, ptr %4, align 8, !tbaa !275
  store i32 %12, ptr %6, align 8, !tbaa !276
  br label %_ZN5Ipopt11TNLPAdapter14update_local_xERKNS_6VectorE.exit

_ZN5Ipopt11TNLPAdapter14update_local_xERKNS_6VectorE.exit: ; preds = %3, %9
  %13 = tail call noundef zeroext i1 @_ZN5Ipopt11TNLPAdapter19internal_eval_jac_gEb(ptr noundef nonnull align 8 dereferenceable(600) %0, i1 noundef zeroext %8)
  br i1 %13, label %14, label %.loopexit

14:                                               ; preds = %_ZN5Ipopt11TNLPAdapter14update_local_xERKNS_6VectorE.exit
  tail call void @_ZN5Ipopt12TaggedObject13ObjectChangedEv(ptr noundef nonnull align 8 dereferenceable(89) %2)
  %15 = getelementptr inbounds nuw i8, ptr %2, i64 88
  store i8 1, ptr %15, align 8, !tbaa !284
  %16 = getelementptr inbounds nuw i8, ptr %2, i64 80
  %17 = load ptr, ptr %16, align 8, !tbaa !287
  %18 = getelementptr inbounds nuw i8, ptr %0, i64 176
  %19 = load i32, ptr %18, align 8, !tbaa !201
  %20 = icmp sgt i32 %19, 0
  br i1 %20, label %.lr.ph, label %.loopexit

.lr.ph:                                           ; preds = %14
  %21 = getelementptr inbounds nuw i8, ptr %0, i64 336
  %22 = load ptr, ptr %21, align 8, !tbaa !65
  %23 = getelementptr inbounds nuw i8, ptr %0, i64 456
  %24 = load ptr, ptr %23, align 8, !tbaa !67
  %25 = getelementptr inbounds nuw i8, ptr %0, i64 172
  %26 = load i32, ptr %25, align 4, !tbaa !196
  %27 = sext i32 %26 to i64
  %wide.trip.count = zext nneg i32 %19 to i64
  %invariant.gep = getelementptr i32, ptr %24, i64 %27
  br label %28

28:                                               ; preds = %.lr.ph, %28
  %indvars.iv = phi i64 [ 0, %.lr.ph ], [ %indvars.iv.next, %28 ]
  %gep = getelementptr i32, ptr %invariant.gep, i64 %indvars.iv
  %29 = load i32, ptr %gep, align 4, !tbaa !87
  %30 = sext i32 %29 to i64
  %31 = getelementptr inbounds double, ptr %22, i64 %30
  %32 = load double, ptr %31, align 8, !tbaa !123
  %33 = getelementptr inbounds nuw double, ptr %17, i64 %indvars.iv
  store double %32, ptr %33, align 8, !tbaa !123
  %indvars.iv.next = add nuw nsw i64 %indvars.iv, 1
  %exitcond.not = icmp eq i64 %indvars.iv.next, %wide.trip.count
  br i1 %exitcond.not, label %.loopexit, label %28, !llvm.loop !292

.loopexit:                                        ; preds = %28, %14, %_ZN5Ipopt11TNLPAdapter14update_local_xERKNS_6VectorE.exit
  ret i1 %13
}